; Function Attrs: mustprogress uwtable
define hidden noundef zeroext i1 @_ZNK18expr_pattern_match10match_declEPK9func_declS2_(ptr noundef nonnull readnone align 8 captures(none) dereferenceable(64) %0, ptr noundef readonly captures(address) %1, ptr noundef readonly captures(address) %2) local_unnamed_addr #4 align 2 {
  %4 = icmp eq ptr %1, %2
  br i1 %4, label %_ZNK4decl13get_family_idEv.exit.thread, label %5

5:                                                ; preds = %3
  %6 = getelementptr inbounds nuw i8, ptr %1, i64 32
  %7 = load i32, ptr %6, align 8, !tbaa !86
  %8 = getelementptr inbounds nuw i8, ptr %2, i64 32
  %9 = load i32, ptr %8, align 8, !tbaa !86
  %.not = icmp eq i32 %7, %9
  br i1 %.not, label %10, label %_ZNK4decl13get_family_idEv.exit.thread

10:                                               ; preds = %5
  %11 = getelementptr inbounds nuw i8, ptr %1, i64 24
  %12 = load ptr, ptr %11, align 8, !tbaa !90
  %13 = icmp eq ptr %12, null
  br i1 %13, label %_ZNK4decl13get_family_idEv.exit.thread, label %_ZNK4decl13get_family_idEv.exit

_ZNK4decl13get_family_idEv.exit:                  ; preds = %10
  %14 = load i32, ptr %12, align 8, !tbaa !91
  %15 = icmp eq i32 %14, -1
  br i1 %15, label %_ZNK4decl13get_family_idEv.exit.thread, label %16

16:                                               ; preds = %_ZNK4decl13get_family_idEv.exit
  %17 = getelementptr inbounds nuw i8, ptr %2, i64 24
  %18 = load ptr, ptr %17, align 8, !tbaa !90
  %19 = icmp eq ptr %18, null
  br i1 %19, label %_ZNK4decl13get_family_idEv.exit.thread, label %_ZNK4decl13get_family_idEv.exit27.thread

_ZNK4decl13get_family_idEv.exit27.thread:         ; preds = %16
  %20 = load i32, ptr %18, align 8, !tbaa !91
  %.not2331 = icmp eq i32 %20, %14
  br i1 %.not2331, label %_ZNK4decl13get_decl_kindEv.exit28.thread, label %_ZNK4decl13get_family_idEv.exit.thread

_ZNK4decl13get_decl_kindEv.exit28.thread:         ; preds = %_ZNK4decl13get_family_idEv.exit27.thread
  %21 = getelementptr inbounds nuw i8, ptr %18, i64 4
  %22 = load i32, ptr %21, align 4, !tbaa !95
  %23 = getelementptr inbounds nuw i8, ptr %12, i64 4
  %24 = load i32, ptr %23, align 4, !tbaa !95
  %.not2432 = icmp eq i32 %22, %24
  br i1 %.not2432, label %25, label %_ZNK4decl13get_family_idEv.exit.thread

25:                                               ; preds = %_ZNK4decl13get_decl_kindEv.exit28.thread
  %26 = getelementptr inbounds nuw i8, ptr %18, i64 8
  %27 = load ptr, ptr %26, align 8, !tbaa !96
  %28 = icmp eq ptr %27, null
  br i1 %28, label %_ZNK4decl18get_num_parametersEv.exit, label %29

29:                                               ; preds = %25
  %30 = getelementptr inbounds i8, ptr %27, i64 -4
  %31 = load i32, ptr %30, align 4, !tbaa !12
  br label %_ZNK4decl18get_num_parametersEv.exit

_ZNK4decl18get_num_parametersEv.exit:             ; preds = %29, %25
  %32 = phi i32 [ %31, %29 ], [ 0, %25 ]
  %33 = getelementptr inbounds nuw i8, ptr %12, i64 8
  %34 = load ptr, ptr %33, align 8, !tbaa !96
  %35 = icmp eq ptr %34, null
  br i1 %35, label %_ZNK4decl18get_num_parametersEv.exit29, label %36

36:                                               ; preds = %_ZNK4decl18get_num_parametersEv.exit
  %37 = getelementptr inbounds i8, ptr %34, i64 -4
  %38 = load i32, ptr %37, align 4, !tbaa !12
  br label %_ZNK4decl18get_num_parametersEv.exit29

_ZNK4decl18get_num_parametersEv.exit29:           ; preds = %_ZNK4decl18get_num_parametersEv.exit, %36
  %39 = phi i32 [ %38, %36 ], [ 0, %_ZNK4decl18get_num_parametersEv.exit ]
  %.not25 = icmp eq i32 %32, %39
  br i1 %.not25, label %.preheader, label %_ZNK4decl13get_family_idEv.exit.thread

.preheader:                                       ; preds = %_ZNK4decl18get_num_parametersEv.exit29, %51
  %indvars.iv = phi i64 [ %indvars.iv.next, %51 ], [ 0, %_ZNK4decl18get_num_parametersEv.exit29 ]
  %40 = load ptr, ptr %17, align 8, !tbaa !90
  %41 = icmp eq ptr %40, null
  br i1 %41, label %_ZNK4decl18get_num_parametersEv.exit30, label %42

42:                                               ; preds = %.preheader
  %43 = getelementptr inbounds nuw i8, ptr %40, i64 8
  %44 = load ptr, ptr %43, align 8, !tbaa !96
  %45 = icmp eq ptr %44, null
  br i1 %45, label %_ZNK4decl18get_num_parametersEv.exit30, label %46

46:                                               ; preds = %42
  %47 = getelementptr inbounds i8, ptr %44, i64 -4
  %48 = load i32, ptr %47, align 4, !tbaa !12
  %49 = zext i32 %48 to i64
  br label %_ZNK4decl18get_num_parametersEv.exit30

_ZNK4decl18get_num_parametersEv.exit30:           ; preds = %.preheader, %42, %46
  %50 = phi i64 [ 0, %.preheader ], [ %49, %46 ], [ 0, %42 ]
  %.not34.not.not = icmp samesign uge i64 %indvars.iv, %50
  br i1 %.not34.not.not, label %_ZNK4decl13get_family_idEv.exit.thread, label %51

51:                                               ; preds = %_ZNK4decl18get_num_parametersEv.exit30
  %52 = getelementptr inbounds nuw i8, ptr %40, i64 8
  %53 = load ptr, ptr %52, align 8, !tbaa !96
  %54 = getelementptr inbounds nuw %class.parameter, ptr %53, i64 %indvars.iv
  %55 = load ptr, ptr %11, align 8, !tbaa !90
  %56 = getelementptr inbounds nuw i8, ptr %55, i64 8
  %57 = load ptr, ptr %56, align 8, !tbaa !96
  %58 = getelementptr inbounds nuw %class.parameter, ptr %57, i64 %indvars.iv
  %59 = tail call noundef zeroext i1 @_ZNK9parametereqERKS_(ptr noundef nonnull align 8 dereferenceable(16) %54, ptr noundef nonnull align 8 dereferenceable(16) %58)
  %indvars.iv.next = add nuw nsw i64 %indvars.iv, 1
  br i1 %59, label %.preheader, label %_ZNK4decl13get_family_idEv.exit.thread, !llvm.loop !97

_ZNK4decl13get_family_idEv.exit.thread:           ; preds = %_ZNK4decl18get_num_parametersEv.exit30, %51, %16, %10, %_ZNK4decl13get_decl_kindEv.exit28.thread, %_ZNK4decl13get_family_idEv.exit27.thread, %_ZNK4decl18get_num_parametersEv.exit29, %_ZNK4decl13get_family_idEv.exit, %5, %3
  %.020 = phi i1 [ true, %3 ], [ false, %5 ], [ false, %_ZNK4decl13get_family_idEv.exit ], [ false, %_ZNK4decl18get_num_parametersEv.exit29 ], [ false, %_ZNK4decl13get_family_idEv.exit27.thread ], [ false, %_ZNK4decl13get_decl_kindEv.exit28.thread ], [ false, %10 ], [ false, %16 ], [ %.not34.not.not, %51 ], [ %.not34.not.not, %_ZNK4decl18get_num_parametersEv.exit30 ]
  ret i1 %.020
}